target datalayout = "e-m:e-p270:32:32-p271:32:32-p272:64:64-i64:64-i128:128-f80:128-n8:16:32:64-S128"
target triple = "x86_64-pc-linux-gnu"

; Function Attrs: nounwind uwtable
define dso_local void @mda_get_prod(i32 noundef %0, ptr noundef %1, ptr noundef %2) #0 {
  %4 = alloca i32, align 4
  %5 = alloca ptr, align 8
  %6 = alloca ptr, align 8
  %7 = alloca i32, align 4
  store i32 %0, ptr %4, align 4
  store ptr %1, ptr %5, align 8
  store ptr %2, ptr %6, align 8
  call void @llvm.lifetime.start.p0(i64 4, ptr %7) #6
  %8 = load ptr, ptr %6, align 8
  %9 = load i32, ptr %4, align 4
  %10 = sub i32 %9, 1
  %11 = sext i32 %10 to i64
  %12 = getelementptr inbounds i32, ptr %8, i64 %11
  store i32 1, ptr %12, align 4
  %13 = load i32, ptr %4, align 4
  %14 = sub i32 %13, 2
  store i32 %14, ptr %7, align 4
  br label %15

15:                                               ; preds = %36, %3
  %16 = load i32, ptr %7, align 4
  %17 = icmp sge i32 %16, 0
  br i1 %17, label %18, label %39

18:                                               ; preds = %15
  %19 = load ptr, ptr %6, align 8
  %20 = load i32, ptr %7, align 4
  %21 = add i32 %20, 1
  %22 = sext i32 %21 to i64
  %23 = getelementptr inbounds i32, ptr %19, i64 %22
  %24 = load i32, ptr %23, align 4
  %25 = load ptr, ptr %5, align 8
  %26 = load i32, ptr %7, align 4
  %27 = add i32 %26, 1
  %28 = sext i32 %27 to i64
  %29 = getelementptr inbounds i32, ptr %25, i64 %28
  %30 = load i32, ptr %29, align 4
  %31 = mul i32 %24, %30
  %32 = load ptr, ptr %6, align 8
  %33 = load i32, ptr %7, align 4
  %34 = sext i32 %33 to i64
  %35 = getelementptr inbounds i32, ptr %32, i64 %34
  store i32 %31, ptr %35, align 4
  br label %36

36:                                               ; preds = %18
  %37 = load i32, ptr %7, align 4
  %38 = add i32 %37, -1
  store i32 %38, ptr %7, align 4
  br label %15, !llvm.loop !9

39:                                               ; preds = %15
  call void @llvm.lifetime.end.p0(i64 4, ptr %7) #6
  ret void
}