; Function Attrs: nofree norecurse nosync nounwind memory(argmem: readwrite) uwtable
define dso_local void @mda_get_prod(i32 noundef %0, ptr noundef readonly captures(none) %1, ptr noundef captures(none) %2) local_unnamed_addr #4 {
  %4 = add i32 %0, -1
  %5 = sext i32 %4 to i64
  %6 = getelementptr inbounds i32, ptr %2, i64 %5
  store i32 1, ptr %6, align 4
  %7 = add i32 %0, -2
  %8 = icmp sgt i32 %7, -1
  br i1 %8, label %.lr.ph.preheader, label %._crit_edge

.lr.ph.preheader:                                 ; preds = %3
  %9 = zext nneg i32 %7 to i64
  br label %.lr.ph

.lr.ph:                                           ; preds = %.lr.ph.preheader, %.lr.ph
  %indvars.iv = phi i64 [ %9, %.lr.ph.preheader ], [ %indvars.iv.next, %.lr.ph ]
  %10 = shl i64 %indvars.iv, 32
  %sext = add i64 %10, 4294967296
  %11 = ashr exact i64 %sext, 32
  %12 = getelementptr inbounds i32, ptr %2, i64 %11
  %13 = load i32, ptr %12, align 4
  %14 = getelementptr inbounds i32, ptr %1, i64 %11
  %15 = load i32, ptr %14, align 4
  %16 = mul i32 %15, %13
  %17 = getelementptr inbounds nuw i32, ptr %2, i64 %indvars.iv
  store i32 %16, ptr %17, align 4
  %indvars.iv.next = add nsw i64 %indvars.iv, -1
  %.not = icmp eq i64 %indvars.iv, 0
  br i1 %.not, label %._crit_edge, label %.lr.ph, !llvm.loop !9

._crit_edge:                                      ; preds = %.lr.ph, %3
  ret void
}